target datalayout = "e-m:e-p270:32:32-p271:32:32-p272:64:64-i64:64-i128:128-f80:128-n8:16:32:64-S128"
target triple = "x86_64-pc-linux-gnu"

%"class.Assimp::OptimizeGraphProcess" = type { %"class.Assimp::BaseProcess", ptr, %"class.std::set", %"class.std::__cxx11::list", i32, i32, i32, %"class.std::vector" }
%"class.Assimp::BaseProcess" = type { ptr, ptr, ptr }
%"class.std::set" = type { %"class.std::_Rb_tree" }
%"class.std::_Rb_tree" = type { %"struct.std::_Rb_tree<std::__cxx11::basic_string<char>, std::__cxx11::basic_string<char>, std::_Identity<std::__cxx11::basic_string<char>>, std::less<std::__cxx11::basic_string<char>>>::_Rb_tree_impl" }
%"struct.std::_Rb_tree<std::__cxx11::basic_string<char>, std::__cxx11::basic_string<char>, std::_Identity<std::__cxx11::basic_string<char>>, std::less<std::__cxx11::basic_string<char>>>::_Rb_tree_impl" = type { [8 x i8], %"struct.std::_Rb_tree_header" }
%"struct.std::_Rb_tree_header" = type { %"struct.std::_Rb_tree_node_base", i64 }
%"struct.std::_Rb_tree_node_base" = type { i32, ptr, ptr, ptr }
%"class.std::__cxx11::list" = type { %"class.std::__cxx11::_List_base" }
%"class.std::__cxx11::_List_base" = type { %"struct.std::__cxx11::_List_base<std::__cxx11::basic_string<char>, std::allocator<std::__cxx11::basic_string<char>>>::_List_impl" }
%"struct.std::__cxx11::_List_base<std::__cxx11::basic_string<char>, std::allocator<std::__cxx11::basic_string<char>>>::_List_impl" = type { %"struct.std::__detail::_List_node_header" }
%"struct.std::__detail::_List_node_header" = type { %"struct.std::__detail::_List_node_base", i64 }
%"struct.std::__detail::_List_node_base" = type { ptr, ptr }
%"class.std::vector" = type { %"struct.std::_Vector_base" }
%"struct.std::_Vector_base" = type { %"struct.std::_Vector_base<unsigned int, std::allocator<unsigned int>>::_Vector_impl" }
%"struct.std::_Vector_base<unsigned int, std::allocator<unsigned int>>::_Vector_impl" = type { %"struct.std::_Vector_base<unsigned int, std::allocator<unsigned int>>::_Vector_impl_data" }
%"struct.std::_Vector_base<unsigned int, std::allocator<unsigned int>>::_Vector_impl_data" = type { ptr, ptr, ptr }
%class.aiMatrix4x4t = type { float, float, float, float, float, float, float, float, float, float, float, float, float, float, float, float }
%struct.aiNode = type { %struct.aiString, %class.aiMatrix4x4t, ptr, i32, ptr, i32, ptr, ptr }
%struct.aiString = type { i32, [1024 x i8] }

; Function Attrs: mustprogress nounwind uwtable
define linkonce_odr noundef nonnull align 4 dereferenceable(4) ptr @_ZNSt6vectorIjSaIjEEixEm(ptr noundef nonnull align 8 dereferenceable(24) %0, i64 noundef %1) #0 comdat align 2 {
  %3 = alloca ptr, align 8
  %4 = alloca i64, align 8
  store ptr %0, ptr %3, align 8
  store i64 %1, ptr %4, align 8
  %5 = load ptr, ptr %3, align 8
  %6 = getelementptr inbounds nuw %"struct.std::_Vector_base", ptr %5, i32 0, i32 0
  %7 = getelementptr inbounds nuw %"struct.std::_Vector_base<unsigned int, std::allocator<unsigned int>>::_Vector_impl_data", ptr %6, i32 0, i32 0
  %8 = load ptr, ptr %7, align 8
  %9 = load i64, ptr %4, align 8
  %10 = getelementptr inbounds nuw i32, ptr %8, i64 %9
  ret ptr %10
}

; Function Attrs: mustprogress uwtable
define hidden void @_ZN6Assimp20OptimizeGraphProcess19FindInstancedMeshesEP6aiNode(ptr noundef nonnull align 8 dereferenceable(144) %0, ptr noundef %1) #2 align 2 {
  %3 = alloca ptr, align 8
  %4 = alloca ptr, align 8
  %5 = alloca i32, align 4
  %6 = alloca i32, align 4
  store ptr %0, ptr %3, align 8
  store ptr %1, ptr %4, align 8
  %7 = load ptr, ptr %3, align 8
  call void @llvm.lifetime.start.p0(i64 4, ptr %5) #18
  store i32 0, ptr %5, align 4
  br label %8

8:                                                ; preds = %28, %2
  %9 = load i32, ptr %5, align 4
  %10 = load ptr, ptr %4, align 8
  %11 = getelementptr inbounds nuw %struct.aiNode, ptr %10, i32 0, i32 5
  %12 = load i32, ptr %11, align 8
  %13 = icmp ult i32 %9, %12
  br i1 %13, label %15, label %14

14:                                               ; preds = %8
  call void @llvm.lifetime.end.p0(i64 4, ptr %5) #18
  br label %31

15:                                               ; preds = %8
  %16 = getelementptr inbounds nuw %"class.Assimp::OptimizeGraphProcess", ptr %7, i32 0, i32 7
  %17 = load ptr, ptr %4, align 8
  %18 = getelementptr inbounds nuw %struct.aiNode, ptr %17, i32 0, i32 6
  %19 = load ptr, ptr %18, align 8
  %20 = load i32, ptr %5, align 4
  %21 = zext i32 %20 to i64
  %22 = getelementptr inbounds nuw i32, ptr %19, i64 %21
  %23 = load i32, ptr %22, align 4
  %24 = zext i32 %23 to i64
  %25 = call noundef nonnull align 4 dereferenceable(4) ptr @_ZNSt6vectorIjSaIjEEixEm(ptr noundef nonnull align 8 dereferenceable(24) %16, i64 noundef %24) #18
  %26 = load i32, ptr %25, align 4
  %27 = add i32 %26, 1
  store i32 %27, ptr %25, align 4
  br label %28

28:                                               ; preds = %15
  %29 = load i32, ptr %5, align 4
  %30 = add i32 %29, 1
  store i32 %30, ptr %5, align 4
  br label %8, !llvm.loop !20

31:                                               ; preds = %14
  call void @llvm.lifetime.start.p0(i64 4, ptr %6) #18
  store i32 0, ptr %6, align 4
  br label %32

32:                                               ; preds = %47, %31
  %33 = load i32, ptr %6, align 4
  %34 = load ptr, ptr %4, align 8
  %35 = getelementptr inbounds nuw %struct.aiNode, ptr %34, i32 0, i32 3
  %36 = load i32, ptr %35, align 8
  %37 = icmp ult i32 %33, %36
  br i1 %37, label %39, label %38

38:                                               ; preds = %32
  call void @llvm.lifetime.end.p0(i64 4, ptr %6) #18
  br label %50

39:                                               ; preds = %32
  %40 = load ptr, ptr %4, align 8
  %41 = getelementptr inbounds nuw %struct.aiNode, ptr %40, i32 0, i32 4
  %42 = load ptr, ptr %41, align 8
  %43 = load i32, ptr %6, align 4
  %44 = zext i32 %43 to i64
  %45 = getelementptr inbounds nuw ptr, ptr %42, i64 %44
  %46 = load ptr, ptr %45, align 8
  call void @_ZN6Assimp20OptimizeGraphProcess19FindInstancedMeshesEP6aiNode(ptr noundef nonnull align 8 dereferenceable(144) %7, ptr noundef %46)
  br label %47

47:                                               ; preds = %39
  %48 = load i32, ptr %6, align 4
  %49 = add i32 %48, 1
  store i32 %49, ptr %6, align 4
  br label %32, !llvm.loop !21

50:                                               ; preds = %38
  ret void
}